; Function Attrs: nounwind uwtable
define void @Gia_ManFrontTest(ptr noundef %0) local_unnamed_addr #0 {
  %2 = tail call ptr @Gia_ManFront(ptr noundef %0)
  tail call void @Gia_ManFrontTransform(ptr noundef %2)
  %3 = getelementptr inbounds nuw i8, ptr %2, i64 32
  %4 = load ptr, ptr %3, align 8, !tbaa !29
  %5 = getelementptr inbounds nuw i8, ptr %0, i64 32
  %6 = load ptr, ptr %5, align 8, !tbaa !29
  %7 = getelementptr inbounds nuw i8, ptr %0, i64 24
  %8 = load i32, ptr %7, align 8, !tbaa !28
  %9 = sext i32 %8 to i64
  %10 = mul nsw i64 %9, 12
  %bcmp = tail call i32 @bcmp(ptr %4, ptr %6, i64 %10)
  %.not = icmp eq i32 %bcmp, 0
  %str.1.str.2 = select i1 %.not, ptr @str.1, ptr @str.2
  %puts = tail call i32 @puts(ptr nonnull dereferenceable(1) %str.1.str.2)
  tail call void @Gia_ManStop(ptr noundef nonnull %2) #16
  ret void
}